(dp1
S'output'
p2
S"<type 'exceptions.NameError'> name 'project_form' is not defined"
p3
sS'layer'
p4
S'C:\\Users\\Ran Weiss\\Desktop\\testapp\\py2manager\\applications\\py2manager\\views\\default/index.html'
p5
sS'code'
p6
S'response.write(\'<!--[if HTML5]><![endif]-->\\n<!DOCTYPE html>\\n<!-- paulirish.com/2008/conditional-stylesheets-vs-css-hacks-answer-neither/ -->\\n<!--[if lt IE 7]><html class="ie ie6 ie-lte9 ie-lte8 ie-lte7 no-js" lang="\', escape=False)\nresponse.write(T.accepted_language or \'en\')\nresponse.write(\'"> <![endif]-->\\n<!--[if IE 7]><html class="ie ie7 ie-lte9 ie-lte8 ie-lte7 no-js" lang="\', escape=False)\nresponse.write(T.accepted_language or \'en\')\nresponse.write(\'"> <![endif]-->\\n<!--[if IE 8]><html class="ie ie8 ie-lte9 ie-lte8 no-js" lang="\', escape=False)\nresponse.write(T.accepted_language or \'en\')\nresponse.write(\'"> <![endif]-->\\n<!--[if IE 9]><html class="ie9 ie-lte9 no-js" lang="\', escape=False)\nresponse.write(T.accepted_language or \'en\')\nresponse.write(\'"> <![endif]-->\\n<!--[if (gt IE 9)|!(IE)]><!--> <html class="no-js" lang="\', escape=False)\nresponse.write(T.accepted_language or \'en\')\nresponse.write(\'"> <!--<![endif]-->\\n    <head>\\n        <meta charset="utf-8">\\n        <!-- www.phpied.com/conditional-comments-block-downloads/ -->\\n        <!-- Always force latest IE rendering engine\\n            (even in intranet) & Chrome Frame\\n             Remove this if you use the .htaccess -->\\n        <meta http-equiv="X-UA-Compatible" content="IE=edge\', escape=False)\nresponse.write(not request.is_local and \',chrome=1\' or \'\')\nresponse.write(\'">\\n        <!--  Mobile Viewport Fix\\n              j.mp/mobileviewport & davidbcalhoun.com/2010/viewport-metatag\\n              device-width: Occupy full width of the screen in its current orientation\\n              initial-scale = 1.0 retains dimensions instead of zooming out if page height > device height\\n              user-scalable = yes allows the user to zoom in -->\\n        <meta name="viewport" content="width=device-width, initial-scale=1.0">\\n        <title>\', escape=False)\nresponse.write(response.title or request.application)\nresponse.write(\'</title>\\n        <!-- http://dev.w3.org/html5/markup/meta.name.html -->\\n        <meta name="application-name" content="\', escape=False)\nresponse.write(request.application)\nresponse.write(\'">\\n        <!-- Speaking of Google, don\\\'t forget to set your site up:\\n               http://google.com/webmasters -->\\n        <meta name="google-site-verification" content="">\\n        <!-- include stylesheets -->\\n        \', escape=False)\nresponse.files.insert(0,URL(\'static\',\'css/web2py.css\'))\nresponse.files.insert(1,URL(\'static\',\'css/bootstrap.min.css\'))\nresponse.files.insert(2,URL(\'static\',\'css/web2py-bootstrap3.css\'))\nresponse.write(\'\\n\\t<!--  <script src="https://cdnjs.cloudflare.com/ajax/libs/modernizr/2.7.1/modernizr.min.js"></script> -->\\n\\t<!--[if lt IE 9]>\\n\\t    <script src="\', escape=False)\nresponse.write(URL(\'static\',\'js/respond.min.js\'))\nresponse.write(\'"></script>\\n\\t    <![endif]-->\\n        <!-- Favicons -->\\n        <link rel="shortcut icon" href="\', escape=False)\nresponse.write(URL(\'static\',\'images/favicon.ico\'))\nresponse.write(\'" type="image/x-icon">\\n        <link rel="apple-touch-icon" href="\', escape=False)\nresponse.write(URL(\'static\',\'images/favicon.png\'))\nresponse.write(\'">\\n        \', escape=False)\nresponse.write(\'<script type="text/javascript"><!--\\n    // These variables are used by the web2py_ajax_init function in web2py_ajax.js (which is loaded below).\\n    var w2p_ajax_confirm_message = "\', escape=False)\nresponse.write(T(\'Are you sure you want to delete this object?\'))\nresponse.write(\'";\\n    var w2p_ajax_disable_with_message = "\', escape=False)\nresponse.write(T(\'Working...\'))\nresponse.write(\'";\\n    var w2p_ajax_date_format = "\', escape=False)\nresponse.write(T(\'%Y-%m-%d\'))\nresponse.write(\'";\\n    var w2p_ajax_datetime_format = "\', escape=False)\nresponse.write(T(\'%Y-%m-%d %H:%M:%S\'))\nresponse.write(\'";\\n    var ajax_error_500 = \\\'\', escape=False)\nresponse.write(T.M(\'An error occured, please [[reload %s]] the page\') % URL(args=request.args, vars=request.get_vars))\nresponse.write("\'\\n    //--></script>\\n", escape=False)\nresponse.files.insert(0,URL(\'static\',\'js/jquery.js\'))\nresponse.files.insert(1,URL(\'static\',\'css/calendar.css\'))\nresponse.files.insert(2,URL(\'static\',\'js/calendar.js\'))\nresponse.files.insert(3,URL(\'static\',\'js/web2py.js\'))\nresponse.include_meta()\nresponse.include_files()\nresponse.write(\'\\n\', escape=False)\nresponse.write(\'\\n        \', escape=False)\nresponse.write(\'\\n        \', escape=False)\n# using sidebars need to know what sidebar you want to use\nmc0 = \'col-md-12\'\nmc1 = \'col-md-9\'\nmc2 = \'col-md-6\'\nleft_sidebar_enabled = globals().get(\'left_sidebar_enabled\', False)\nright_sidebar_enabled = globals().get(\'right_sidebar_enabled\', False)\nmiddle_column = {0: mc0, 1: mc1, 2: mc2}[\n(left_sidebar_enabled and 1 or 0)+(right_sidebar_enabled and 1 or 0)]\nresponse.write(\'\\n    </head>\\n    <body>\\n        <div class="flash alert alert-dismissable">\', escape=False)\nresponse.write(response.flash or \'\')\nresponse.write(\'</div>\\n<!-- Navbar =================================================================== -->\\n        <nav class="navbar navbar-inverse navbar-fixed-top" role="navigation">\\n            <div class="container">\\n                <div class="navbar-header">\\n                    <button type="button" class="navbar-toggle" data-toggle="collapse" data-target=".navbar-collapse">\\n                        <span class="sr-only">Toggle navigation</span>\\n                        <span class="icon-bar"></span>\\n                        <span class="icon-bar"></span>\\n                        <span class="icon-bar"></span>\\n                    </button>\\n                    \', escape=False)\nresponse.write(response.logo or \'\')\nresponse.write(\'\\n                </div>\\n                <div class="collapse navbar-collapse navbar-ex1-collapse">\\n                    <ul class="nav navbar-nav navbar-right">\\n                        \', escape=False)\nresponse.write(\'auth\' in globals() and auth.navbar(\'Welcome\',mode=\'dropdown\') or \'\')\nresponse.write(\'\\n                    </ul>\\n                    \', escape=False)\nif response.menu:\n    response.write(\'\\n                    \', escape=False)\n    response.write(MENU(response.menu, _class=\'nav navbar-nav\',li_class=\'dropdown\',ul_class=\'dropdown-menu\'))\n    response.write(\'\\n                    \', escape=False)\n    pass\nresponse.write(\'\\n                </div>\\n            </div>\\n        </nav>\\n<!-- Masthead ================================================================= -->\\n        <header class="container">\\n            <div class="page-header">\\n                \', escape=False)\nif response.title:\n    response.write(\'\\n                <h1>\', escape=False)\n    response.write(response.title)\n    response.write(\'\\n                <small>\', escape=False)\n    response.write(response.subtitle or \'\')\n    response.write(\'</small></h1>\\n                \', escape=False)\n    pass\nresponse.write(\'\\n            </div>\\n        </header>\\n<!-- Main ===================================================================== -->\\n        <main class="container" id="content" role="main">\\n            <div class="row">\\n                \', escape=False)\nif left_sidebar_enabled:\n    response.write(\'\\n<!--    left sidebar ---------------------------------------------------------- -->\\n                <div class="col-md-3">\\n                    \', escape=False)\n    response.write(\'\\n                    \', escape=False)\n    response.write(\'\\n                </div>\\n                \', escape=False)\n    pass\nresponse.write(\'\\n<!--    central column -------------------------------------------------------- -->\\n                <div class="\', escape=False)\nresponse.write(middle_column)\nresponse.write(\'">\\n                    \', escape=False)\nresponse.write(\'\\n                    \', escape=False)\nresponse.write(\' \\r\\n<h2>Welcome to py2manager</h2> \\r\\n<br/> \\r\\n\', escape=False)\nresponse.write((project_form))\nresponse.write(\' \\r\\n<br/> \\r\\n<h3> All Open Projects </h3> \\r\\n<ul>\\r\\n    \', escape=False)\nfor project in projects:\n    response.write(\' \\r\\n    <li> \\r\\n        \', escape=False)\n    response.write((project.name))\n    response.write(\' \\r\\n    </li> \\r\\n    \', escape=False)\n    pass\nresponse.write(\' \\r\\n</ul>\\r\\n\', escape=False)\nresponse.write(\'\\n                    \', escape=False)\nresponse.write(\'\\n                </div>\\n                \', escape=False)\nif right_sidebar_enabled:\n    response.write(\'\\n<!--    right sidebar --------------------------------------------------------- -->\\n                <div class="col-md-3">\\n                    \', escape=False)\n    response.write(\'\\n                    \', escape=False)\n    response.write(\'\\n                </div>\\n                \', escape=False)\n    pass\nresponse.write(\'\\n            </div>\\n        </main>\\n<!-- Footer =================================================================== -->\\n        <footer id="footer" class="container">\\n            <div class="row">\\n                \', escape=False)\nresponse.write(\'\\n                <div class="col-xs-6">\\n                    <p>\', escape=False)\nresponse.write(T(\'Copyright\'))\nresponse.write(\' &#169; \', escape=False)\nresponse.write(request.now.year)\nresponse.write(\'</p>\\n                </div>\\n                <div class="col-xs-6">\\n                    <p class="pull-right">\', escape=False)\nresponse.write(T(\'Powered by\'))\nresponse.write(\' <a href="http://www.web2py.com/">web2py</a></p>\\n                </div>\\n                \', escape=False)\nresponse.write(\'\\n            </div>\\n        </footer>\\n<!-- The javascript =========================================================== -->\\n        <script src="\', escape=False)\nresponse.write(URL(\'static\',\'js/bootstrap.min.js\'))\nresponse.write(\'"></script>\\n        <script src="\', escape=False)\nresponse.write(URL(\'static\',\'js/web2py-bootstrap3.js\'))\nresponse.write(\'"></script>\\n        \', escape=False)\nresponse.write(\'\\n        \', escape=False)\nif response.google_analytics_id:\n    response.write(\'\\n<!-- Analytics ================================================================ -->\\n        <script src="\', escape=False)\n    response.write(URL(\'static\',\'js/analytics.min.js\'))\n    response.write(\'"></script>\\n        <script type="text/javascript">\\n            analytics.initialize({\\n            \\\'Google Analytics\\\':{trackingId:\\\'\', escape=False)\n    response.write(response.google_analytics_id)\n    response.write("\'}\\n            });\\n        </script>\\n        ", escape=False)\n    pass\nresponse.write(\'\\n<!-- Share ==================================================================== -->\\n        <script src="\', escape=False)\nresponse.write(URL(\'static\',\'js/share.js\',vars=dict(static=URL(\'static\',\'images\'))))\nresponse.write(\'"></script>\\n    </body>\\n</html>\\n\', escape=False)'
p7
sS'snapshot'
p8
(dp9
sS'traceback'
p10
S'Traceback (most recent call last):\n  File "C:\\Users\\Ran Weiss\\Desktop\\testapp\\py2manager\\gluon\\restricted.py", line 217, in restricted\n    exec ccode in environment\n  File "C:\\Users\\Ran Weiss\\Desktop\\testapp\\py2manager\\applications\\py2manager\\views\\default/index.html", line 87, in <module>\nNameError: name \'project_form\' is not defined\n'
p11
s.