(dp1
S'output'
p2
S"<type 'exceptions.TypeError'> grid() got an unexpected keyword argument 'maxtextlegth'"
p3
sS'layer'
p4
S'C:\\Users\\Ran Weiss\\Desktop\\testapp\\py2manager\\applications\\py2manager\\controllers/default.py'
p5
sS'code'
p6
S'# -*- coding: utf-8 -*-\n# this file is released under public domain and you can use without limitations\n\n#########################################################################\n## This is a sample controller\n## - index is the default action of any application\n## - user is required for authentication and authorization\n## - download is for downloading files uploaded in the db (does streaming)\n## - call exposes all registered services (none by default)\n#########################################################################\n\n@auth.requires_login()\ndef index():\n    response.flash = T(\'Welcome\')\n    grid = SQLFORM.grid(db.project, create=False,\n                       fields=[db.project.name, db.project.employee_name, db.project.company_name, db.project.start_date, db.project.due_date, db.project.completed],\n                        deletable=False, maxtextlegth=50)\n    \n    return locals()\n\ndef user():\n    """\n    exposes:\n    http://..../[app]/default/user/login\n    http://..../[app]/default/user/logout\n    http://..../[app]/default/user/register\n    http://..../[app]/default/user/profile\n    http://..../[app]/default/user/retrieve_password\n    http://..../[app]/default/user/change_password\n    http://..../[app]/default/user/manage_users (requires membership in\n    use @auth.requires_login()\n        @auth.requires_membership(\'group name\')\n        @auth.requires_permission(\'read\',\'table name\',record_id)\n    to decorate functions that need access control\n    """\n    return dict(form=auth())\n\n@cache.action()\ndef download():\n    """\n    allows downloading of uploaded files\n    http://..../[app]/default/download/[filename]\n    """\n    return response.download(request, db)\n\n\ndef call():\n    """\n    exposes services. for example:\n    http://..../[app]/default/call/jsonrpc\n    decorate with @services.jsonrpc the functions to expose\n    supports xml, json, xmlrpc, jsonrpc, amfrpc, rss, csv\n    """\n    return service()\n\n\n@auth.requires_signature()\ndef data():\n    """\n    http://..../[app]/default/data/tables\n    http://..../[app]/default/data/create/[table]\n    http://..../[app]/default/data/read/[table]/[id]\n    http://..../[app]/default/data/update/[table]/[id]\n    http://..../[app]/default/data/delete/[table]/[id]\n    http://..../[app]/default/data/select/[table]\n    http://..../[app]/default/data/search/[table]\n    but URLs must be signed, i.e. linked with\n      A(\'table\',_href=URL(\'data/tables\',user_signature=True))\n    or with the signed load operator\n      LOAD(\'default\',\'data.load\',args=\'tables\',ajax=True,user_signature=True)\n    """\n    return dict(form=crud())\n\n@auth.requires_login()\ndef add():\n    project_form = SQLFORM(db.project).process()\n    return dict(project_form=project_form)\n\n@auth.requires_login()\ndef company():\n    company_form = SQLFORM(db.company).process()\n    return dict(company_form=company_form)\n\nresponse._vars=response._caller(index)\n'
p7
sS'snapshot'
p8
(dp9
sS'traceback'
p10
S'Traceback (most recent call last):\n  File "C:\\Users\\Ran Weiss\\Desktop\\testapp\\py2manager\\gluon\\restricted.py", line 217, in restricted\n    exec ccode in environment\n  File "C:\\Users\\Ran Weiss\\Desktop\\testapp\\py2manager\\applications\\py2manager\\controllers/default.py", line 84, in <module>\n  File "C:\\Users\\Ran Weiss\\Desktop\\testapp\\py2manager\\gluon\\globals.py", line 385, in <lambda>\n    self._caller = lambda f: f()\n  File "C:\\Users\\Ran Weiss\\Desktop\\testapp\\py2manager\\gluon\\tools.py", line 3242, in f\n    return action(*a, **b)\n  File "C:\\Users\\Ran Weiss\\Desktop\\testapp\\py2manager\\applications\\py2manager\\controllers/default.py", line 17, in index\n    deletable=False, maxtextlegth=50)\nTypeError: grid() got an unexpected keyword argument \'maxtextlegth\'\n'
p11
s.